Certificate:
    Data:
        Version: 1 (0x0)
        Serial Number: 4660 (0x1234)
    Signature Algorithm: md5WithRSAEncryption
        Issuer: C=uk, ST=London, L=London, O=GDS, OU=DI, CN=My CA
        Validity
            Not Before: Dec 15 11:15:56 2021 GMT
            Not After : Dec 15 11:15:56 2022 GMT
        Subject: C=UK, ST=London, L=London, O=GDS, OU=DI, CN=DI IPV Passport Signing
        Subject Public Key Info:
            Public Key Algorithm: rsaEncryption
                Public-Key: (2048 bit)
                Modulus:
                    00:e6:cf:52:15:a8:b4:b5:b5:15:cb:d6:6f:3e:f3:
                    09:69:64:ba:cd:23:87:61:46:26:1c:9d:40:6d:5b:
                    31:e9:dc:88:0c:a7:1f:d2:93:26:fd:1c:60:77:ab:
                    a7:9a:0e:71:24:a5:4d:55:85:e7:e5:76:ac:76:36:
                    b2:29:7e:f6:a3:31:00:0a:62:a4:32:16:cb:af:06:
                    49:35:5a:8d:f6:b6:0e:11:6d:24:d9:1a:94:0c:4c:
                    e6:ec:2c:e7:cd:08:30:a2:dd:d6:6b:90:28:2f:f8:
                    3b:9d:b4:16:f3:98:da:43:dc:b6:64:af:79:e1:bc:
                    28:fc:4f:08:fb:b6:b1:b3:c7:e0:fe:59:b7:c5:79:
                    fc:d8:f0:7a:5d:6d:f8:9f:80:dd:17:b3:f0:ac:30:
                    d8:17:28:32:7d:a2:a4:29:ca:c3:0f:12:28:c1:85:
                    7d:14:44:72:92:f8:b7:df:f0:2f:e6:5e:61:ac:b6:
                    2f:e0:bf:5a:43:d8:c5:04:07:1d:d8:23:fa:70:d2:
                    99:3c:b2:61:53:17:84:8b:c4:1f:99:2c:b2:32:06:
                    99:97:5d:fd:9b:c1:6a:0b:da:56:23:85:01:94:89:
                    57:63:5d:3f:e6:35:58:80:c3:67:c6:f5:a1:8e:bd:
                    a3:ed:1a:d9:7c:02:e0:6f:7c:c6:8f:13:24:1c:29:
                    4a:0b
                Exponent: 65537 (0x10001)
    Signature Algorithm: md5WithRSAEncryption
         49:1d:c0:85:da:de:13:d7:5d:19:d6:46:b6:bf:51:9d:0b:75:
         71:1d:9c:d4:83:28:62:e1:dd:f2:45:5d:94:b7:78:49:a4:d2:
         44:6a:2a:98:ab:5b:73:e4:a1:68:31:0a:be:af:8c:f8:57:2f:
         90:a8:67:fe:36:cb:29:7f:e7:f9:80:0c:b8:cf:2d:9c:86:0e:
         a8:78:38:21:05:97:fd:8c:7c:35:2b:38:fa:54:ff:4a:8c:69:
         b9:03:93:0a:13:a8:e7:12:02:be:e6:4d:17:d0:75:22:a6:11:
         66:d5:43:5a:9b:74:e6:bf:bb:f3:fa:d8:28:54:d1:35:26:a6:
         7d:30:d8:4c:8f:38:5a:b1:dd:d5:85:e5:04:65:1c:24:9d:b9:
         07:61:4b:3b:ba:72:cd:80:f1:59:3f:da:51:d6:a5:fa:41:d2:
         9a:4c:c1:22:21:6a:82:12:a9:de:35:22:74:a1:3b:2c:28:a4:
         df:cb:02:91:49:ee:eb:9f:fa:05:d3:12:eb:dd:ed:37:eb:a3:
         a0:b7:70:dc:32:17:95:44:3d:a8:08:93:c5:1f:bb:4c:d2:cd:
         ef:9d:8c:3a:3a:7e:67:ef:b1:db:0c:ff:34:6d:a5:53:b7:8e:
         55:5f:c3:42:ea:be:88:72:b1:8d:34:3c:5f:c7:44:1d:dd:c1:
         e8:13:07:f1
-----BEGIN CERTIFICATE-----
MIIDOzCCAiMCAhI0MA0GCSqGSIb3DQEBBAUAMFoxCzAJBgNVBAYTAnVrMQ8wDQYD
VQQIDAZMb25kb24xDzANBgNVBAcMBkxvbmRvbjEMMAoGA1UECgwDR0RTMQswCQYD
VQQLDAJESTEOMAwGA1UEAwwFTXkgQ0EwHhcNMjExMjE1MTExNTU2WhcNMjIxMjE1
MTExNTU2WjBsMQswCQYDVQQGEwJVSzEPMA0GA1UECBMGTG9uZG9uMQ8wDQYDVQQH
EwZMb25kb24xDDAKBgNVBAoTA0dEUzELMAkGA1UECxMCREkxIDAeBgNVBAMTF0RJ
IElQViBQYXNzcG9ydCBTaWduaW5nMIIBIjANBgkqhkiG9w0BAQEFAAOCAQ8AMIIB
CgKCAQEA5s9SFai0tbUVy9ZvPvMJaWS6zSOHYUYmHJ1AbVsx6dyIDKcf0pMm/Rxg
d6unmg5xJKVNVYXn5XasdjayKX72ozEACmKkMhbLrwZJNVqN9rYOEW0k2RqUDEzm
7CznzQgwot3Wa5AoL/g7nbQW85jaQ9y2ZK954bwo/E8I+7axs8fg/lm3xXn82PB6
XW34n4DdF7PwrDDYFygyfaKkKcrDDxIowYV9FERykvi33/Av5l5hrLYv4L9aQ9jF
BAcd2CP6cNKZPLJhUxeEi8QfmSyyMgaZl139m8FqC9pWI4UBlIlXY10/5jVYgMNn
xvWhjr2j7RrZfALgb3zGjxMkHClKCwIDAQABMA0GCSqGSIb3DQEBBAUAA4IBAQBJ
HcCF2t4T110Z1ka2v1GdC3VxHZzUgyhi4d3yRV2Ut3hJpNJEaiqYq1tz5KFoMQq+
r4z4Vy+QqGf+Nsspf+f5gAy4zy2chg6oeDghBZf9jHw1Kzj6VP9KjGm5A5MKE6jn
EgK+5k0X0HUiphFm1UNam3Tmv7vz+tgoVNE1JqZ9MNhMjzhasd3VheUEZRwknbkH
YUs7unLNgPFZP9pR1qX6QdKaTMEiIWqCEqneNSJ0oTssKKTfywKRSe7rn/oF0xLr
3e0366Ogt3DcMheVRD2oCJPFH7tM0s3vnYw6On5n77HbDP80baVTt45VX8NC6r6I
crGNNDxfx0Qd3cHoEwfx
-----END CERTIFICATE-----
