Certificate:
    Data:
        Version: 1 (0x0)
        Serial Number: 4661 (0x1235)
    Signature Algorithm: md5WithRSAEncryption
        Issuer: C=uk, ST=London, L=London, O=GDS, OU=DI, CN=My CA
        Validity
            Not Before: Dec 15 11:45:22 2021 GMT
            Not After : Dec 15 11:45:22 2022 GMT
        Subject: C=UK, ST=London, L=London, O=GDS, OU=DI, CN=DI IPV Passport Signing: 1639568713394
        Subject Public Key Info:
            Public Key Algorithm: rsaEncryption
                Public-Key: (2048 bit)
                Modulus:
                    00:e6:cf:52:15:a8:b4:b5:b5:15:cb:d6:6f:3e:f3:
                    09:69:64:ba:cd:23:87:61:46:26:1c:9d:40:6d:5b:
                    31:e9:dc:88:0c:a7:1f:d2:93:26:fd:1c:60:77:ab:
                    a7:9a:0e:71:24:a5:4d:55:85:e7:e5:76:ac:76:36:
                    b2:29:7e:f6:a3:31:00:0a:62:a4:32:16:cb:af:06:
                    49:35:5a:8d:f6:b6:0e:11:6d:24:d9:1a:94:0c:4c:
                    e6:ec:2c:e7:cd:08:30:a2:dd:d6:6b:90:28:2f:f8:
                    3b:9d:b4:16:f3:98:da:43:dc:b6:64:af:79:e1:bc:
                    28:fc:4f:08:fb:b6:b1:b3:c7:e0:fe:59:b7:c5:79:
                    fc:d8:f0:7a:5d:6d:f8:9f:80:dd:17:b3:f0:ac:30:
                    d8:17:28:32:7d:a2:a4:29:ca:c3:0f:12:28:c1:85:
                    7d:14:44:72:92:f8:b7:df:f0:2f:e6:5e:61:ac:b6:
                    2f:e0:bf:5a:43:d8:c5:04:07:1d:d8:23:fa:70:d2:
                    99:3c:b2:61:53:17:84:8b:c4:1f:99:2c:b2:32:06:
                    99:97:5d:fd:9b:c1:6a:0b:da:56:23:85:01:94:89:
                    57:63:5d:3f:e6:35:58:80:c3:67:c6:f5:a1:8e:bd:
                    a3:ed:1a:d9:7c:02:e0:6f:7c:c6:8f:13:24:1c:29:
                    4a:0b
                Exponent: 65537 (0x10001)
    Signature Algorithm: md5WithRSAEncryption
         48:df:11:90:21:13:70:15:87:14:70:ab:49:95:4b:1b:c1:5b:
         f0:c8:e3:6e:fe:66:54:d9:4e:84:f1:11:cf:54:89:bf:a5:8b:
         c9:19:ef:27:5f:66:3d:de:86:3c:85:0b:37:ee:42:67:0e:4f:
         8f:3e:26:e5:6a:07:78:6b:9b:6c:30:9c:66:cd:5d:26:fd:f6:
         7f:d7:e1:f0:33:65:77:e0:2c:36:7b:22:5d:de:cc:35:01:14:
         d1:6d:b9:44:89:31:06:62:67:02:01:94:3d:03:f5:b0:b6:06:
         9b:01:54:43:d4:0d:30:67:fc:c3:9f:e0:e9:7a:5d:d8:c3:ea:
         69:d4:12:03:9c:62:af:8a:c4:7e:ed:ad:6e:66:49:07:7a:56:
         07:32:9e:3d:d9:eb:3e:dc:50:d9:1e:a4:40:bf:61:9d:ea:90:
         2b:ca:fb:62:5a:5c:7b:88:f7:d2:6c:1e:ab:34:4d:ac:eb:60:
         40:21:6c:6c:46:5c:4a:00:1c:da:16:65:fc:b4:87:8f:26:5b:
         25:26:cc:d6:8b:87:2e:5b:80:33:df:bc:b3:c6:44:9c:48:1d:
         b8:d2:44:0d:da:ab:97:c1:dc:f3:5a:9e:75:a1:88:af:8a:3c:
         6a:e5:b4:fc:d7:b7:f3:ce:3a:ee:bd:92:b0:eb:bc:93:8e:ed:
         c2:fe:31:3d
-----BEGIN CERTIFICATE-----
MIIDSjCCAjICAhI1MA0GCSqGSIb3DQEBBAUAMFoxCzAJBgNVBAYTAnVrMQ8wDQYD
VQQIDAZMb25kb24xDzANBgNVBAcMBkxvbmRvbjEMMAoGA1UECgwDR0RTMQswCQYD
VQQLDAJESTEOMAwGA1UEAwwFTXkgQ0EwHhcNMjExMjE1MTE0NTIyWhcNMjIxMjE1
MTE0NTIyWjB7MQswCQYDVQQGEwJVSzEPMA0GA1UECBMGTG9uZG9uMQ8wDQYDVQQH
EwZMb25kb24xDDAKBgNVBAoTA0dEUzELMAkGA1UECxMCREkxLzAtBgNVBAMTJkRJ
IElQViBQYXNzcG9ydCBTaWduaW5nOiAxNjM5NTY4NzEzMzk0MIIBIjANBgkqhkiG
9w0BAQEFAAOCAQ8AMIIBCgKCAQEA5s9SFai0tbUVy9ZvPvMJaWS6zSOHYUYmHJ1A
bVsx6dyIDKcf0pMm/Rxgd6unmg5xJKVNVYXn5XasdjayKX72ozEACmKkMhbLrwZJ
NVqN9rYOEW0k2RqUDEzm7CznzQgwot3Wa5AoL/g7nbQW85jaQ9y2ZK954bwo/E8I
+7axs8fg/lm3xXn82PB6XW34n4DdF7PwrDDYFygyfaKkKcrDDxIowYV9FERykvi3
3/Av5l5hrLYv4L9aQ9jFBAcd2CP6cNKZPLJhUxeEi8QfmSyyMgaZl139m8FqC9pW
I4UBlIlXY10/5jVYgMNnxvWhjr2j7RrZfALgb3zGjxMkHClKCwIDAQABMA0GCSqG
SIb3DQEBBAUAA4IBAQBI3xGQIRNwFYcUcKtJlUsbwVvwyONu/mZU2U6E8RHPVIm/
pYvJGe8nX2Y93oY8hQs37kJnDk+PPiblagd4a5tsMJxmzV0m/fZ/1+HwM2V34Cw2
eyJd3sw1ARTRbblEiTEGYmcCAZQ9A/WwtgabAVRD1A0wZ/zDn+Dpel3Yw+pp1BID
nGKvisR+7a1uZkkHelYHMp492es+3FDZHqRAv2Gd6pAryvtiWlx7iPfSbB6rNE2s
62BAIWxsRlxKABzaFmX8tIePJlslJszWi4cuW4Az37yzxkScSB240kQN2quXwdzz
Wp51oYivijxq5bT817fzzjruvZKw67yTju3C/jE9
-----END CERTIFICATE-----
